target datalayout = "e-m:e-p270:32:32-p271:32:32-p272:64:64-i64:64-i128:128-f80:128-n8:16:32:64-S128"
target triple = "x86_64-pc-linux-gnu"

%struct._object = type { %union.anon, ptr }
%union.anon = type { i64 }
%struct.PyVarObject = type { %struct._object, i64 }
%struct.PyTupleObject = type { %struct.PyVarObject, [1 x ptr] }
%struct._typeobject = type { %struct.PyVarObject, ptr, i64, i64, ptr, i64, ptr, ptr, ptr, ptr, ptr, ptr, ptr, ptr, ptr, ptr, ptr, ptr, ptr, i64, ptr, ptr, ptr, ptr, i64, ptr, ptr, ptr, ptr, ptr, ptr, ptr, ptr, ptr, i64, ptr, ptr, ptr, ptr, ptr, ptr, ptr, ptr, ptr, ptr, ptr, i32, ptr, ptr, i8, i16 }
%struct.collections_state = type { ptr, ptr, ptr, ptr, ptr }
%struct.anon = type { i32, i32 }
%struct.PyModuleObject = type { %struct._object, ptr, ptr, ptr, ptr, ptr }
%struct._heaptypeobject = type { %struct._typeobject, %struct.PyAsyncMethods, %struct.PyNumberMethods, %struct.PyMappingMethods, %struct.PySequenceMethods, %struct.PyBufferProcs, ptr, ptr, ptr, ptr, ptr, ptr, ptr, %struct._specialization_cache }
%struct.PyAsyncMethods = type { ptr, ptr, ptr, ptr }
%struct.PyNumberMethods = type { ptr, ptr, ptr, ptr, ptr, ptr, ptr, ptr, ptr, ptr, ptr, ptr, ptr, ptr, ptr, ptr, ptr, ptr, ptr, ptr, ptr, ptr, ptr, ptr, ptr, ptr, ptr, ptr, ptr, ptr, ptr, ptr, ptr, ptr, ptr, ptr }
%struct.PyMappingMethods = type { ptr, ptr, ptr }
%struct.PySequenceMethods = type { ptr, ptr, ptr, ptr, ptr, ptr, ptr, ptr, ptr, ptr }
%struct.PyBufferProcs = type { ptr, ptr }
%struct._specialization_cache = type { ptr, i32, ptr }
%struct._tuplegetterobject = type { %struct._object, i64, ptr }

@.str.83 = private unnamed_addr constant [13 x i8] c"_tuplegetter\00", align 1

; Function Attrs: alwaysinline nounwind uwtable
define internal void @Py_INCREF(ptr noundef %0) #4 {
  %2 = alloca ptr, align 8
  %3 = alloca i32, align 4
  %4 = alloca i32, align 4
  store ptr %0, ptr %2, align 8, !tbaa !4
  call void @llvm.lifetime.start.p0(i64 4, ptr %3) #7
  %5 = load ptr, ptr %2, align 8, !tbaa !4
  %6 = getelementptr inbounds nuw %struct._object, ptr %5, i32 0, i32 0
  %7 = getelementptr inbounds nuw %struct.anon, ptr %6, i32 0, i32 0
  %8 = load i32, ptr %7, align 8, !tbaa !39
  store i32 %8, ptr %3, align 4, !tbaa !13
  %9 = load i32, ptr %3, align 4, !tbaa !13
  %10 = icmp slt i32 %9, 0
  br i1 %10, label %11, label %12

11:                                               ; preds = %1
  store i32 1, ptr %4, align 4
  br label %18

12:                                               ; preds = %1
  %13 = load i32, ptr %3, align 4, !tbaa !13
  %14 = add i32 %13, 1
  %15 = load ptr, ptr %2, align 8, !tbaa !4
  %16 = getelementptr inbounds nuw %struct._object, ptr %15, i32 0, i32 0
  %17 = getelementptr inbounds nuw %struct.anon, ptr %16, i32 0, i32 0
  store i32 %14, ptr %17, align 8, !tbaa !39
  store i32 0, ptr %4, align 4
  br label %18

18:                                               ; preds = %12, %11
  call void @llvm.lifetime.end.p0(i64 4, ptr %3) #7
  %19 = load i32, ptr %4, align 4
  switch i32 %19, label %21 [
    i32 0, label %20
    i32 1, label %20
  ]

20:                                               ; preds = %18, %18
  ret void

21:                                               ; preds = %18
  unreachable
}

; Function Attrs: inlinehint nounwind uwtable
define internal ptr @_Py_NewRef(ptr noundef %0) #3 {
  %2 = alloca ptr, align 8
  store ptr %0, ptr %2, align 8, !tbaa !4
  %3 = load ptr, ptr %2, align 8, !tbaa !4
  call void @Py_INCREF(ptr noundef %3)
  %4 = load ptr, ptr %2, align 8, !tbaa !4
  ret ptr %4
}

; Function Attrs: alwaysinline nounwind uwtable
define internal i32 @_Py_IsImmortal(ptr noundef %0) #4 {
  %2 = alloca ptr, align 8
  store ptr %0, ptr %2, align 8, !tbaa !4
  %3 = load ptr, ptr %2, align 8, !tbaa !4
  %4 = getelementptr inbounds nuw %struct._object, ptr %3, i32 0, i32 0
  %5 = getelementptr inbounds nuw %struct.anon, ptr %4, i32 0, i32 0
  %6 = load i32, ptr %5, align 8, !tbaa !39
  %7 = icmp slt i32 %6, 0
  %8 = zext i1 %7 to i32
  ret i32 %8
}

; Function Attrs: inlinehint nounwind uwtable
define internal i64 @Py_SIZE(ptr noundef %0) #3 {
  %2 = alloca ptr, align 8
  store ptr %0, ptr %2, align 8, !tbaa !4
  %3 = load ptr, ptr %2, align 8, !tbaa !4
  %4 = getelementptr inbounds nuw %struct.PyVarObject, ptr %3, i32 0, i32 1
  %5 = load i64, ptr %4, align 8, !tbaa !72
  ret i64 %5
}

; Function Attrs: inlinehint nounwind uwtable
define internal ptr @_PyType_GetModuleState(ptr noundef %0) #3 {
  %2 = alloca ptr, align 8
  %3 = alloca ptr, align 8
  %4 = alloca ptr, align 8
  store ptr %0, ptr %2, align 8, !tbaa !21
  call void @llvm.lifetime.start.p0(i64 8, ptr %3) #7
  %5 = load ptr, ptr %2, align 8, !tbaa !21
  store ptr %5, ptr %3, align 8, !tbaa !115
  call void @llvm.lifetime.start.p0(i64 8, ptr %4) #7
  %6 = load ptr, ptr %3, align 8, !tbaa !115
  %7 = getelementptr inbounds nuw %struct._heaptypeobject, ptr %6, i32 0, i32 10
  %8 = load ptr, ptr %7, align 8, !tbaa !117
  store ptr %8, ptr %4, align 8, !tbaa !9
  %9 = load ptr, ptr %4, align 8, !tbaa !9
  %10 = getelementptr inbounds nuw %struct.PyModuleObject, ptr %9, i32 0, i32 3
  %11 = load ptr, ptr %10, align 8, !tbaa !40
  call void @llvm.lifetime.end.p0(i64 8, ptr %4) #7
  call void @llvm.lifetime.end.p0(i64 8, ptr %3) #7
  ret ptr %11
}

; Function Attrs: nounwind uwtable
define internal ptr @tuplegetter_new_impl(ptr noundef %0, i64 noundef %1, ptr noundef %2) #0 {
  %4 = alloca ptr, align 8
  %5 = alloca ptr, align 8
  %6 = alloca i64, align 8
  %7 = alloca ptr, align 8
  %8 = alloca ptr, align 8
  %9 = alloca i32, align 4
  store ptr %0, ptr %5, align 8, !tbaa !21
  store i64 %1, ptr %6, align 8, !tbaa !24
  store ptr %2, ptr %7, align 8, !tbaa !4
  call void @llvm.lifetime.start.p0(i64 8, ptr %8) #7
  %10 = load ptr, ptr %5, align 8, !tbaa !21
  %11 = getelementptr inbounds nuw %struct._typeobject, ptr %10, i32 0, i32 36
  %12 = load ptr, ptr %11, align 8, !tbaa !71
  %13 = load ptr, ptr %5, align 8, !tbaa !21
  %14 = call ptr %12(ptr noundef %13, i64 noundef 0)
  store ptr %14, ptr %8, align 8, !tbaa !9
  %15 = load ptr, ptr %8, align 8, !tbaa !9
  %16 = icmp eq ptr %15, null
  br i1 %16, label %17, label %18

17:                                               ; preds = %3
  store ptr null, ptr %4, align 8
  store i32 1, ptr %9, align 4
  br label %27

18:                                               ; preds = %3
  %19 = load i64, ptr %6, align 8, !tbaa !24
  %20 = load ptr, ptr %8, align 8, !tbaa !9
  %21 = getelementptr inbounds nuw %struct._tuplegetterobject, ptr %20, i32 0, i32 1
  store i64 %19, ptr %21, align 8, !tbaa !126
  %22 = load ptr, ptr %7, align 8, !tbaa !4
  %23 = call ptr @_Py_NewRef(ptr noundef %22)
  %24 = load ptr, ptr %8, align 8, !tbaa !9
  %25 = getelementptr inbounds nuw %struct._tuplegetterobject, ptr %24, i32 0, i32 2
  store ptr %23, ptr %25, align 8, !tbaa !128
  %26 = load ptr, ptr %8, align 8, !tbaa !9
  store ptr %26, ptr %4, align 8
  store i32 1, ptr %9, align 4
  br label %27

27:                                               ; preds = %18, %17
  call void @llvm.lifetime.end.p0(i64 8, ptr %8) #7
  %28 = load ptr, ptr %4, align 8
  ret ptr %28
}

; Function Attrs: alwaysinline nounwind uwtable
define internal void @Py_DECREF(ptr noundef %0) #4 {
  %2 = alloca ptr, align 8
  store ptr %0, ptr %2, align 8, !tbaa !4
  %3 = load ptr, ptr %2, align 8, !tbaa !4
  %4 = call i32 @_Py_IsImmortal(ptr noundef %3)
  %5 = icmp ne i32 %4, 0
  br i1 %5, label %6, label %7

6:                                                ; preds = %1
  br label %16

7:                                                ; preds = %1
  %8 = load ptr, ptr %2, align 8, !tbaa !4
  %9 = getelementptr inbounds nuw %struct._object, ptr %8, i32 0, i32 0
  %10 = getelementptr inbounds nuw %struct.anon, ptr %9, i32 0, i32 0
  %11 = load i32, ptr %10, align 8, !tbaa !39
  %12 = add i32 %11, -1
  store i32 %12, ptr %10, align 8, !tbaa !39
  %13 = icmp eq i32 %12, 0
  br i1 %13, label %14, label %16

14:                                               ; preds = %7
  %15 = load ptr, ptr %2, align 8, !tbaa !4
  call void @_Py_Dealloc(ptr noundef %15)
  br label %16

16:                                               ; preds = %6, %14, %7
  ret void
}

; Function Attrs: inlinehint nounwind uwtable
define internal i64 @PyTuple_GET_SIZE(ptr noundef %0) #3 {
  %2 = alloca ptr, align 8
  %3 = alloca ptr, align 8
  store ptr %0, ptr %2, align 8, !tbaa !4
  call void @llvm.lifetime.start.p0(i64 8, ptr %3) #7
  %4 = load ptr, ptr %2, align 8, !tbaa !4
  store ptr %4, ptr %3, align 8, !tbaa !9
  %5 = load ptr, ptr %3, align 8, !tbaa !9
  %6 = call i64 @Py_SIZE(ptr noundef %5)
  call void @llvm.lifetime.end.p0(i64 8, ptr %3) #7
  ret i64 %6
}

; Function Attrs: inlinehint nounwind uwtable
define internal ptr @get_module_state_by_cls(ptr noundef %0) #3 {
  %2 = alloca ptr, align 8
  %3 = alloca ptr, align 8
  store ptr %0, ptr %2, align 8, !tbaa !21
  call void @llvm.lifetime.start.p0(i64 8, ptr %3) #7
  %4 = load ptr, ptr %2, align 8, !tbaa !21
  %5 = call ptr @_PyType_GetModuleState(ptr noundef %4)
  store ptr %5, ptr %3, align 8, !tbaa !9
  %6 = load ptr, ptr %3, align 8, !tbaa !9
  call void @llvm.lifetime.end.p0(i64 8, ptr %3) #7
  ret ptr %6
}

; Function Attrs: nounwind uwtable
define internal ptr @tuplegetter_new(ptr noundef %0, ptr noundef %1, ptr noundef %2) #0 {
  %4 = alloca ptr, align 8
  %5 = alloca ptr, align 8
  %6 = alloca ptr, align 8
  %7 = alloca ptr, align 8
  %8 = alloca ptr, align 8
  %9 = alloca ptr, align 8
  %10 = alloca i64, align 8
  %11 = alloca ptr, align 8
  %12 = alloca i64, align 8
  %13 = alloca ptr, align 8
  %14 = alloca i32, align 4
  store ptr %0, ptr %5, align 8, !tbaa !21
  store ptr %1, ptr %6, align 8, !tbaa !4
  store ptr %2, ptr %7, align 8, !tbaa !4
  call void @llvm.lifetime.start.p0(i64 8, ptr %8) #7
  store ptr null, ptr %8, align 8, !tbaa !4
  call void @llvm.lifetime.start.p0(i64 8, ptr %9) #7
  %15 = load ptr, ptr %5, align 8, !tbaa !21
  %16 = call ptr @get_module_state_by_cls(ptr noundef %15)
  %17 = getelementptr inbounds nuw %struct.collections_state, ptr %16, i32 0, i32 4
  %18 = load ptr, ptr %17, align 8, !tbaa !18
  store ptr %18, ptr %9, align 8, !tbaa !21
  call void @llvm.lifetime.start.p0(i64 8, ptr %10) #7
  call void @llvm.lifetime.start.p0(i64 8, ptr %11) #7
  %19 = load ptr, ptr %5, align 8, !tbaa !21
  %20 = load ptr, ptr %9, align 8, !tbaa !21
  %21 = icmp eq ptr %19, %20
  br i1 %21, label %30, label %22

22:                                               ; preds = %3
  %23 = load ptr, ptr %5, align 8, !tbaa !21
  %24 = getelementptr inbounds nuw %struct._typeobject, ptr %23, i32 0, i32 35
  %25 = load ptr, ptr %24, align 8, !tbaa !108
  %26 = load ptr, ptr %9, align 8, !tbaa !21
  %27 = getelementptr inbounds nuw %struct._typeobject, ptr %26, i32 0, i32 35
  %28 = load ptr, ptr %27, align 8, !tbaa !108
  %29 = icmp eq ptr %25, %28
  br i1 %29, label %30, label %38

30:                                               ; preds = %22, %3
  %31 = load ptr, ptr %7, align 8, !tbaa !4
  %32 = icmp eq ptr %31, null
  br i1 %32, label %38, label %33

33:                                               ; preds = %30
  %34 = load ptr, ptr %7, align 8, !tbaa !4
  %35 = call i32 @_PyArg_NoKeywords(ptr noundef @.str.83, ptr noundef %34)
  %36 = icmp ne i32 %35, 0
  br i1 %36, label %38, label %37

37:                                               ; preds = %33
  br label %84

38:                                               ; preds = %33, %30, %22
  %39 = load ptr, ptr %6, align 8, !tbaa !4
  %40 = call i64 @PyTuple_GET_SIZE(ptr noundef %39)
  %41 = icmp sle i64 2, %40
  br i1 %41, label %42, label %46

42:                                               ; preds = %38
  %43 = load ptr, ptr %6, align 8, !tbaa !4
  %44 = call i64 @PyTuple_GET_SIZE(ptr noundef %43)
  %45 = icmp sle i64 %44, 2
  br i1 %45, label %52, label %46

46:                                               ; preds = %42, %38
  %47 = load ptr, ptr %6, align 8, !tbaa !4
  %48 = call i64 @PyTuple_GET_SIZE(ptr noundef %47)
  %49 = call i32 @_PyArg_CheckPositional(ptr noundef @.str.83, i64 noundef %48, i64 noundef 2, i64 noundef 2)
  %50 = icmp ne i32 %49, 0
  br i1 %50, label %52, label %51

51:                                               ; preds = %46
  br label %84

52:                                               ; preds = %46, %42
  call void @llvm.lifetime.start.p0(i64 8, ptr %12) #7
  store i64 -1, ptr %12, align 8, !tbaa !24
  call void @llvm.lifetime.start.p0(i64 8, ptr %13) #7
  %53 = load ptr, ptr %6, align 8, !tbaa !4
  %54 = getelementptr inbounds nuw %struct.PyTupleObject, ptr %53, i32 0, i32 1
  %55 = getelementptr [1 x ptr], ptr %54, i64 0, i64 0
  %56 = load ptr, ptr %55, align 8, !tbaa !4
  %57 = call ptr @_PyNumber_Index(ptr noundef %56)
  store ptr %57, ptr %13, align 8, !tbaa !4
  %58 = load ptr, ptr %13, align 8, !tbaa !4
  %59 = icmp ne ptr %58, null
  br i1 %59, label %60, label %64

60:                                               ; preds = %52
  %61 = load ptr, ptr %13, align 8, !tbaa !4
  %62 = call i64 @PyLong_AsSsize_t(ptr noundef %61)
  store i64 %62, ptr %12, align 8, !tbaa !24
  %63 = load ptr, ptr %13, align 8, !tbaa !4
  call void @Py_DECREF(ptr noundef %63)
  br label %64

64:                                               ; preds = %60, %52
  %65 = load i64, ptr %12, align 8, !tbaa !24
  %66 = icmp eq i64 %65, -1
  br i1 %66, label %67, label %71

67:                                               ; preds = %64
  %68 = call ptr @PyErr_Occurred()
  %69 = icmp ne ptr %68, null
  br i1 %69, label %70, label %71

70:                                               ; preds = %67
  store i32 2, ptr %14, align 4
  br label %73

71:                                               ; preds = %67, %64
  %72 = load i64, ptr %12, align 8, !tbaa !24
  store i64 %72, ptr %10, align 8, !tbaa !24
  store i32 0, ptr %14, align 4
  br label %73

73:                                               ; preds = %70, %71
  call void @llvm.lifetime.end.p0(i64 8, ptr %13) #7
  call void @llvm.lifetime.end.p0(i64 8, ptr %12) #7
  %74 = load i32, ptr %14, align 4
  switch i32 %74, label %86 [
    i32 0, label %75
    i32 2, label %84
  ]

75:                                               ; preds = %73
  %76 = load ptr, ptr %6, align 8, !tbaa !4
  %77 = getelementptr inbounds nuw %struct.PyTupleObject, ptr %76, i32 0, i32 1
  %78 = getelementptr [1 x ptr], ptr %77, i64 0, i64 1
  %79 = load ptr, ptr %78, align 8, !tbaa !4
  store ptr %79, ptr %11, align 8, !tbaa !4
  %80 = load ptr, ptr %5, align 8, !tbaa !21
  %81 = load i64, ptr %10, align 8, !tbaa !24
  %82 = load ptr, ptr %11, align 8, !tbaa !4
  %83 = call ptr @tuplegetter_new_impl(ptr noundef %80, i64 noundef %81, ptr noundef %82)
  store ptr %83, ptr %8, align 8, !tbaa !4
  br label %84

84:                                               ; preds = %75, %73, %51, %37
  %85 = load ptr, ptr %8, align 8, !tbaa !4
  store ptr %85, ptr %4, align 8
  store i32 1, ptr %14, align 4
  br label %86

86:                                               ; preds = %84, %73
  call void @llvm.lifetime.end.p0(i64 8, ptr %11) #7
  call void @llvm.lifetime.end.p0(i64 8, ptr %10) #7
  call void @llvm.lifetime.end.p0(i64 8, ptr %9) #7
  call void @llvm.lifetime.end.p0(i64 8, ptr %8) #7
  %87 = load ptr, ptr %4, align 8
  ret ptr %87
}