; Function Attrs: nounwind uwtable
define internal ptr @tuplegetter_new(ptr noundef %0, ptr noundef readonly captures(none) %1, ptr noundef %2) #0 {
  %4 = getelementptr i8, ptr %0, i64 888
  %.val = load ptr, ptr %4, align 8, !tbaa !106
  %5 = getelementptr i8, ptr %.val, i64 32
  %.val.val = load ptr, ptr %5, align 8, !tbaa !4
  %6 = getelementptr inbounds nuw i8, ptr %.val.val, i64 32
  %7 = load ptr, ptr %6, align 8, !tbaa !18
  %8 = icmp eq ptr %0, %7
  br i1 %8, label %16, label %9

9:                                                ; preds = %3
  %10 = getelementptr inbounds nuw i8, ptr %0, i64 296
  %11 = load ptr, ptr %10, align 8, !tbaa !101
  %12 = getelementptr inbounds nuw i8, ptr %7, i64 296
  %13 = load ptr, ptr %12, align 8, !tbaa !101
  %14 = icmp ne ptr %11, %13
  %15 = icmp eq ptr %2, null
  %or.cond = or i1 %15, %14
  br i1 %or.cond, label %19, label %17

16:                                               ; preds = %3
  %.old1 = icmp eq ptr %2, null
  br i1 %.old1, label %19, label %17

17:                                               ; preds = %9, %16
  %18 = tail call i32 @_PyArg_NoKeywords(ptr noundef nonnull @.str.83, ptr noundef nonnull %2) #9
  %.not = icmp eq i32 %18, 0
  br i1 %.not, label %tuplegetter_new_impl.exit, label %19

19:                                               ; preds = %17, %16, %9
  %20 = getelementptr i8, ptr %1, i64 16
  %.val36 = load i64, ptr %20, align 8, !tbaa !52
  %or.cond45 = icmp eq i64 %.val36, 2
  br i1 %or.cond45, label %23, label %21

21:                                               ; preds = %19
  %22 = tail call i32 @_PyArg_CheckPositional(ptr noundef nonnull @.str.83, i64 noundef %.val36, i64 noundef 2, i64 noundef 2) #9
  %.not30 = icmp eq i32 %22, 0
  br i1 %.not30, label %tuplegetter_new_impl.exit, label %23

23:                                               ; preds = %19, %21
  %24 = getelementptr inbounds nuw i8, ptr %1, i64 24
  %25 = load ptr, ptr %24, align 8, !tbaa !21
  %26 = tail call ptr @_PyNumber_Index(ptr noundef %25) #9
  %.not31 = icmp eq ptr %26, null
  br i1 %.not31, label %Py_DECREF.exit.thread, label %27

27:                                               ; preds = %23
  %28 = tail call i64 @PyLong_AsSsize_t(ptr noundef nonnull %26) #9
  %29 = load i32, ptr %26, align 8, !tbaa !20
  %.not.i = icmp sgt i32 %29, -1
  br i1 %.not.i, label %30, label %Py_DECREF.exit

30:                                               ; preds = %27
  %31 = add nsw i32 %29, -1
  store i32 %31, ptr %26, align 8, !tbaa !20
  %32 = icmp eq i32 %31, 0
  br i1 %32, label %33, label %Py_DECREF.exit

33:                                               ; preds = %30
  tail call void @_Py_Dealloc(ptr noundef nonnull %26) #9
  br label %Py_DECREF.exit

Py_DECREF.exit:                                   ; preds = %33, %30, %27
  %34 = icmp eq i64 %28, -1
  br i1 %34, label %Py_DECREF.exit.thread, label %36

Py_DECREF.exit.thread:                            ; preds = %23, %Py_DECREF.exit
  %35 = tail call ptr @PyErr_Occurred() #9
  %.not32 = icmp eq ptr %35, null
  br i1 %.not32, label %36, label %tuplegetter_new_impl.exit

36:                                               ; preds = %Py_DECREF.exit.thread, %Py_DECREF.exit
  %.02438.ph = phi i64 [ %28, %Py_DECREF.exit ], [ -1, %Py_DECREF.exit.thread ]
  %37 = getelementptr i8, ptr %1, i64 32
  %38 = load ptr, ptr %37, align 8, !tbaa !21
  %39 = getelementptr inbounds nuw i8, ptr %0, i64 304
  %40 = load ptr, ptr %39, align 8, !tbaa !69
  %41 = tail call ptr %40(ptr noundef nonnull %0, i64 noundef 0) #9
  %42 = icmp eq ptr %41, null
  br i1 %42, label %tuplegetter_new_impl.exit, label %43

43:                                               ; preds = %36
  %44 = getelementptr inbounds nuw i8, ptr %41, i64 16
  store i64 %.02438.ph, ptr %44, align 8, !tbaa !116
  %45 = load i32, ptr %38, align 8, !tbaa !20
  %46 = icmp slt i32 %45, 0
  br i1 %46, label %_Py_NewRef.exit.i, label %47

47:                                               ; preds = %43
  %48 = add nuw i32 %45, 1
  store i32 %48, ptr %38, align 8, !tbaa !20
  br label %_Py_NewRef.exit.i

_Py_NewRef.exit.i:                                ; preds = %47, %43
  %49 = getelementptr inbounds nuw i8, ptr %41, i64 24
  store ptr %38, ptr %49, align 8, !tbaa !118
  br label %tuplegetter_new_impl.exit

tuplegetter_new_impl.exit:                        ; preds = %_Py_NewRef.exit.i, %36, %Py_DECREF.exit.thread, %17, %21
  %.025 = phi ptr [ null, %21 ], [ null, %17 ], [ null, %Py_DECREF.exit.thread ], [ null, %36 ], [ %41, %_Py_NewRef.exit.i ]
  ret ptr %.025
}